; Function Attrs: mustprogress uwtable
define dso_local void @_ZN17cmOutputConverter14EscapeForCMakeB5cxx11ESt17basic_string_viewIcSt11char_traitsIcEENS_10WrapQuotesE(ptr dead_on_unwind noalias writable sret(%"class.std::__cxx11::basic_string") align 8 %0, i64 %1, ptr readonly %2, i32 noundef %3) local_unnamed_addr #3 align 2 personality ptr @__gxx_personality_v0 {
  %5 = alloca %"class.std::allocator", align 1
  %6 = icmp eq i32 %3, 0
  %7 = select i1 %6, ptr @.str, ptr @.str.2
  call void @_ZNSaIcEC1Ev(ptr noundef nonnull align 1 dereferenceable(1) %5) #18
  %8 = invoke noundef ptr @_ZNSt7__cxx1112basic_stringIcSt11char_traitsIcESaIcEE13_M_local_dataEv(ptr noundef nonnull align 8 dereferenceable(32) %0)
          to label %.noexc unwind label %18

.noexc:                                           ; preds = %4
  invoke void @_ZNSt7__cxx1112basic_stringIcSt11char_traitsIcESaIcEE12_Alloc_hiderC1EPcRKS3_(ptr noundef nonnull align 8 dereferenceable(8) %0, ptr noundef %8, ptr noundef nonnull align 1 dereferenceable(1) %5)
          to label %.noexc18 unwind label %18

.noexc18:                                         ; preds = %.noexc
  %9 = zext i1 %6 to i64
  %10 = getelementptr inbounds i8, ptr %7, i64 %9
  invoke void @_ZNSt7__cxx1112basic_stringIcSt11char_traitsIcESaIcEE12_M_constructIPKcEEvT_S8_St20forward_iterator_tag(ptr noundef nonnull align 8 dereferenceable(32) %0, ptr noundef nonnull %7, ptr noundef nonnull %10)
          to label %_ZNSt7__cxx1112basic_stringIcSt11char_traitsIcESaIcEEC2IS3_EEPKcRKS3_.exit unwind label %11

11:                                               ; preds = %.noexc18
  %12 = landingpad { ptr, i32 }
          cleanup
  call void @_ZNSaIcED2Ev(ptr noundef nonnull align 1 dereferenceable(1) %0) #18
  br label %.body

_ZNSt7__cxx1112basic_stringIcSt11char_traitsIcESaIcEEC2IS3_EEPKcRKS3_.exit: ; preds = %.noexc18
  call void @_ZNSaIcED1Ev(ptr noundef nonnull align 1 dereferenceable(1) %5) #18
  %13 = getelementptr inbounds i8, ptr %2, i64 %1
  %.not20 = icmp eq i64 %1, 0
  br i1 %.not20, label %._crit_edge, label %.lr.ph

.lr.ph:                                           ; preds = %_ZNSt7__cxx1112basic_stringIcSt11char_traitsIcESaIcEEC2IS3_EEPKcRKS3_.exit, %24
  %.01421 = phi ptr [ %25, %24 ], [ %2, %_ZNSt7__cxx1112basic_stringIcSt11char_traitsIcESaIcEEC2IS3_EEPKcRKS3_.exit ]
  %14 = load i8, ptr %.01421, align 1
  switch i8 %14, label %22 [
    i8 34, label %15
    i8 36, label %.invoke
    i8 92, label %21
  ]

15:                                               ; preds = %.lr.ph
  br label %.invoke

.invoke:                                          ; preds = %.lr.ph, %21, %15
  %16 = phi ptr [ @.str.3, %15 ], [ @.str.5, %21 ], [ @.str.4, %.lr.ph ]
  %17 = invoke noundef nonnull align 8 dereferenceable(32) ptr @_ZNSt7__cxx1112basic_stringIcSt11char_traitsIcESaIcEEpLEPKc(ptr noundef nonnull align 8 dereferenceable(32) %0, ptr noundef nonnull %16)
          to label %24 unwind label %.loopexit

18:                                               ; preds = %.noexc, %4
  %19 = landingpad { ptr, i32 }
          cleanup
  br label %.body

.body:                                            ; preds = %11, %18
  %eh.lpad-body = phi { ptr, i32 } [ %19, %18 ], [ %12, %11 ]
  call void @_ZNSaIcED1Ev(ptr noundef nonnull align 1 dereferenceable(1) %5) #18
  br label %29

.loopexit:                                        ; preds = %.invoke, %22
  %lpad.loopexit = landingpad { ptr, i32 }
          cleanup
  br label %20

.loopexit.split-lp:                               ; preds = %26
  %lpad.loopexit.split-lp = landingpad { ptr, i32 }
          cleanup
  br label %20

20:                                               ; preds = %.loopexit.split-lp, %.loopexit
  %lpad.phi = phi { ptr, i32 } [ %lpad.loopexit, %.loopexit ], [ %lpad.loopexit.split-lp, %.loopexit.split-lp ]
  call void @_ZNSt7__cxx1112basic_stringIcSt11char_traitsIcESaIcEED1Ev(ptr noundef nonnull align 8 dereferenceable(32) %0) #18
  br label %29

21:                                               ; preds = %.lr.ph
  br label %.invoke

22:                                               ; preds = %.lr.ph
  %23 = invoke noundef nonnull align 8 dereferenceable(32) ptr @_ZNSt7__cxx1112basic_stringIcSt11char_traitsIcESaIcEEpLEc(ptr noundef nonnull align 8 dereferenceable(32) %0, i8 noundef signext %14)
          to label %24 unwind label %.loopexit

24:                                               ; preds = %.invoke, %22
  %25 = getelementptr inbounds i8, ptr %.01421, i64 1
  %.not = icmp eq ptr %25, %13
  br i1 %.not, label %._crit_edge, label %.lr.ph

._crit_edge:                                      ; preds = %24, %_ZNSt7__cxx1112basic_stringIcSt11char_traitsIcESaIcEEC2IS3_EEPKcRKS3_.exit
  br i1 %6, label %26, label %28

26:                                               ; preds = %._crit_edge
  %27 = invoke noundef nonnull align 8 dereferenceable(32) ptr @_ZNSt7__cxx1112basic_stringIcSt11char_traitsIcESaIcEEpLEPKc(ptr noundef nonnull align 8 dereferenceable(32) %0, ptr noundef nonnull @.str)
          to label %28 unwind label %.loopexit.split-lp

28:                                               ; preds = %._crit_edge, %26
  ret void

29:                                               ; preds = %20, %.body
  %.pn = phi { ptr, i32 } [ %lpad.phi, %20 ], [ %eh.lpad-body, %.body ]
  resume { ptr, i32 } %.pn
}